target datalayout = "e-m:e-p270:32:32-p271:32:32-p272:64:64-i64:64-i128:128-f80:128-n8:16:32:64-S128"
target triple = "x86_64-pc-linux-gnu"

%struct.pmix_mca_base_framework_t = type { ptr, ptr, ptr, ptr, ptr, ptr, i32, i32, ptr, ptr, i32, i32, %struct.pmix_list_t, %struct.pmix_list_t }
%struct.pmix_list_t = type { %struct.pmix_object_t, %struct.pmix_list_item_t, i64 }
%struct.pmix_object_t = type { %union.pthread_mutex_t, ptr, i32, %struct.pmix_tma }
%union.pthread_mutex_t = type { %struct.__pthread_mutex_s }
%struct.__pthread_mutex_s = type { i32, i32, i32, i32, i32, i16, i16, %struct.__pthread_internal_list }
%struct.__pthread_internal_list = type { ptr, ptr }
%struct.pmix_tma = type { ptr, ptr, ptr, ptr, ptr, ptr, ptr, ptr }
%struct.pmix_list_item_t = type { %struct.pmix_object_t, ptr, ptr, i32 }
%struct.pmix_output_desc_t = type { i8, i8, i32, i8, i32, ptr, ptr, i32, ptr, i32, i8, i8, i8, i8, ptr, i32, i32 }
%struct.prte_process_info_t = type { %struct.pmix_proc, %struct.pmix_proc, ptr, %struct.pmix_proc, i32, i32, i32, ptr, ptr, i32, i8, ptr, i16, ptr, ptr, i8, ptr, i8 }
%struct.pmix_proc = type { [256 x i8], i32 }
%struct.__sigset_t = type { [16 x i64] }
%struct.sigaction = type { %union.anon.7, %struct.__sigset_t, i32, ptr }
%union.anon.7 = type { ptr }

@prte_plm_base_framework = external global %struct.pmix_mca_base_framework_t, align 8
@pmix_output_info = external global [0 x %struct.pmix_output_desc_t], align 8
@prte_process_info = external global %struct.prte_process_info_t, align 8
@ssh_agent_path = internal global ptr null, align 8
@.str.15 = private unnamed_addr constant [5 x i8] c"NULL\00", align 1
@prte_launch_environ = external global ptr, align 8
@.str.100 = private unnamed_addr constant [10 x i8] c"/dev/null\00", align 1
@.str.101 = private unnamed_addr constant [33 x i8] c"%s plm:ssh: executing: (%s) [%s]\00", align 1
@.str.102 = private unnamed_addr constant [47 x i8] c"plm:ssh: execv of %s failed with errno=%s(%d)\0A\00", align 1

; Function Attrs: nounwind uwtable
define internal void @set_handler_default(i32 noundef %0) #0 {
  %2 = alloca i32, align 4
  %3 = alloca %struct.sigaction, align 8
  store i32 %0, ptr %2, align 4, !tbaa !18
  call void @llvm.lifetime.start.p0(i64 152, ptr %3) #13
  %4 = getelementptr inbounds nuw %struct.sigaction, ptr %3, i32 0, i32 0
  store ptr null, ptr %4, align 8, !tbaa !161
  %5 = getelementptr inbounds nuw %struct.sigaction, ptr %3, i32 0, i32 2
  store i32 0, ptr %5, align 8, !tbaa !190
  %6 = getelementptr inbounds nuw %struct.sigaction, ptr %3, i32 0, i32 1
  %7 = call i32 @sigemptyset(ptr noundef %6) #13
  %8 = load i32, ptr %2, align 4, !tbaa !18
  %9 = call i32 @sigaction(i32 noundef %8, ptr noundef %3, ptr noundef null) #13
  call void @llvm.lifetime.end.p0(i64 152, ptr %3) #13
  ret void
}

; Function Attrs: noreturn nounwind uwtable
define internal void @ssh_child(i32 noundef %0, ptr noundef %1) #12 {
  %3 = alloca i32, align 4
  %4 = alloca ptr, align 8
  %5 = alloca ptr, align 8
  %6 = alloca ptr, align 8
  %7 = alloca ptr, align 8
  %8 = alloca ptr, align 8
  %9 = alloca i32, align 4
  %10 = alloca %struct.__sigset_t, align 8
  store i32 %0, ptr %3, align 4, !tbaa !18
  store ptr %1, ptr %4, align 8, !tbaa !28
  call void @llvm.lifetime.start.p0(i64 8, ptr %5) #13
  call void @llvm.lifetime.start.p0(i64 8, ptr %6) #13
  call void @llvm.lifetime.start.p0(i64 8, ptr %7) #13
  call void @llvm.lifetime.start.p0(i64 8, ptr %8) #13
  call void @llvm.lifetime.start.p0(i64 4, ptr %9) #13
  call void @llvm.lifetime.start.p0(i64 128, ptr %10) #13
  %11 = load ptr, ptr @prte_launch_environ, align 8, !tbaa !28
  %12 = call ptr @PMIx_Argv_copy(ptr noundef %11)
  store ptr %12, ptr %5, align 8, !tbaa !28
  %13 = load ptr, ptr %4, align 8, !tbaa !28
  store ptr %13, ptr %8, align 8, !tbaa !28
  %14 = load ptr, ptr @ssh_agent_path, align 8, !tbaa !17
  %15 = call noalias ptr @strdup(ptr noundef %14) #13
  store ptr %15, ptr %7, align 8, !tbaa !17
  %16 = call i32 (ptr, i32, ...) @open(ptr noundef @.str.100, i32 noundef 2)
  store i32 %16, ptr %9, align 4, !tbaa !18
  %17 = load i32, ptr %9, align 4, !tbaa !18
  %18 = call i32 @dup2(i32 noundef %17, i32 noundef 0) #13
  %19 = load i32, ptr %9, align 4, !tbaa !18
  %20 = call i32 @close(i32 noundef %19)
  call void @pmix_close_open_file_descriptors(i32 noundef -1)
  call void @set_handler_default(i32 noundef 15)
  call void @set_handler_default(i32 noundef 2)
  call void @set_handler_default(i32 noundef 1)
  call void @set_handler_default(i32 noundef 13)
  call void @set_handler_default(i32 noundef 17)
  %21 = call i32 @sigprocmask(i32 noundef 0, ptr noundef null, ptr noundef %10) #13
  %22 = call i32 @sigprocmask(i32 noundef 1, ptr noundef %10, ptr noundef null) #13
  %23 = load ptr, ptr %4, align 8, !tbaa !28
  %24 = call ptr @PMIx_Argv_join(ptr noundef %23, i32 noundef 32)
  store ptr %24, ptr %6, align 8, !tbaa !17
  %25 = load i32, ptr getelementptr inbounds nuw (%struct.pmix_mca_base_framework_t, ptr @prte_plm_base_framework, i32 0, i32 11), align 4, !tbaa !19
  %26 = icmp sge i32 %25, 0
  br i1 %26, label %27, label %48

27:                                               ; preds = %2
  %28 = load i32, ptr getelementptr inbounds nuw (%struct.pmix_mca_base_framework_t, ptr @prte_plm_base_framework, i32 0, i32 11), align 4, !tbaa !19
  %29 = icmp slt i32 %28, 64
  br i1 %29, label %30, label %48

30:                                               ; preds = %27
  %31 = load i32, ptr getelementptr inbounds nuw (%struct.pmix_mca_base_framework_t, ptr @prte_plm_base_framework, i32 0, i32 11), align 4, !tbaa !19
  %32 = sext i32 %31 to i64
  %33 = getelementptr inbounds [0 x %struct.pmix_output_desc_t], ptr @pmix_output_info, i64 0, i64 %32
  %34 = getelementptr inbounds nuw %struct.pmix_output_desc_t, ptr %33, i32 0, i32 2
  %35 = load i32, ptr %34, align 4, !tbaa !29
  %36 = icmp sge i32 %35, 1
  br i1 %36, label %37, label %48

37:                                               ; preds = %30
  %38 = load i32, ptr getelementptr inbounds nuw (%struct.pmix_mca_base_framework_t, ptr @prte_plm_base_framework, i32 0, i32 11), align 4, !tbaa !19
  %39 = call ptr @prte_util_print_name_args(ptr noundef @prte_process_info)
  %40 = load ptr, ptr %7, align 8, !tbaa !17
  %41 = load ptr, ptr %6, align 8, !tbaa !17
  %42 = icmp eq ptr null, %41
  br i1 %42, label %43, label %44

43:                                               ; preds = %37
  br label %46

44:                                               ; preds = %37
  %45 = load ptr, ptr %6, align 8, !tbaa !17
  br label %46

46:                                               ; preds = %44, %43
  %47 = phi ptr [ @.str.15, %43 ], [ %45, %44 ]
  call void (i32, ptr, ...) @pmix_output(i32 noundef %38, ptr noundef @.str.101, ptr noundef %39, ptr noundef %40, ptr noundef %47)
  br label %48

48:                                               ; preds = %46, %30, %27, %2
  %49 = load ptr, ptr %6, align 8, !tbaa !17
  %50 = icmp ne ptr null, %49
  br i1 %50, label %51, label %53

51:                                               ; preds = %48
  %52 = load ptr, ptr %6, align 8, !tbaa !17
  call void @free(ptr noundef %52) #13
  br label %53

53:                                               ; preds = %51, %48
  %54 = load ptr, ptr %7, align 8, !tbaa !17
  %55 = load ptr, ptr %8, align 8, !tbaa !28
  %56 = load ptr, ptr %5, align 8, !tbaa !28
  %57 = call i32 @execve(ptr noundef %54, ptr noundef %55, ptr noundef %56) #13
  %58 = load ptr, ptr %7, align 8, !tbaa !17
  %59 = call ptr @__errno_location() #15
  %60 = load i32, ptr %59, align 4, !tbaa !18
  %61 = call ptr @strerror(i32 noundef %60) #13
  %62 = call ptr @__errno_location() #15
  %63 = load i32, ptr %62, align 4, !tbaa !18
  call void (i32, ptr, ...) @pmix_output(i32 noundef 0, ptr noundef @.str.102, ptr noundef %58, ptr noundef %61, i32 noundef %63)
  call void @exit(i32 noundef -1) #14
  unreachable
}