; Function Attrs: noreturn nounwind uwtable
define internal fastcc void @ssh_child(ptr noundef %0) unnamed_addr #16 {
  %2 = alloca %struct.sigaction, align 8
  %3 = alloca %struct.sigaction, align 8
  %4 = alloca %struct.sigaction, align 8
  %5 = alloca %struct.sigaction, align 8
  %6 = alloca %struct.sigaction, align 8
  %7 = alloca %struct.__sigset_t, align 8
  call void @llvm.lifetime.start.p0(i64 128, ptr nonnull %7) #18
  %8 = load ptr, ptr @prte_launch_environ, align 8, !tbaa !27
  %9 = tail call ptr @PMIx_Argv_copy(ptr noundef %8) #18
  %10 = load ptr, ptr @ssh_agent_path, align 8, !tbaa !17
  %11 = tail call noalias ptr @strdup(ptr noundef %10) #18
  %12 = tail call i32 (ptr, i32, ...) @open(ptr noundef nonnull @.str.100, i32 noundef 2) #18
  %13 = tail call i32 @dup2(i32 noundef %12, i32 noundef 0) #18
  %14 = tail call i32 @close(i32 noundef %12) #18
  tail call void @pmix_close_open_file_descriptors(i32 noundef -1) #18
  call void @llvm.lifetime.start.p0(i64 152, ptr nonnull %6) #18
  store ptr null, ptr %6, align 8, !tbaa !140
  %15 = getelementptr inbounds nuw i8, ptr %6, i64 136
  store i32 0, ptr %15, align 8, !tbaa !157
  %16 = getelementptr inbounds nuw i8, ptr %6, i64 8
  %17 = call i32 @sigemptyset(ptr noundef nonnull %16) #18
  %18 = call i32 @sigaction(i32 noundef 15, ptr noundef nonnull %6, ptr noundef null) #18
  call void @llvm.lifetime.end.p0(i64 152, ptr nonnull %6) #18
  call void @llvm.lifetime.start.p0(i64 152, ptr nonnull %5) #18
  store ptr null, ptr %5, align 8, !tbaa !140
  %19 = getelementptr inbounds nuw i8, ptr %5, i64 136
  store i32 0, ptr %19, align 8, !tbaa !157
  %20 = getelementptr inbounds nuw i8, ptr %5, i64 8
  %21 = call i32 @sigemptyset(ptr noundef nonnull %20) #18
  %22 = call i32 @sigaction(i32 noundef 2, ptr noundef nonnull %5, ptr noundef null) #18
  call void @llvm.lifetime.end.p0(i64 152, ptr nonnull %5) #18
  call void @llvm.lifetime.start.p0(i64 152, ptr nonnull %4) #18
  store ptr null, ptr %4, align 8, !tbaa !140
  %23 = getelementptr inbounds nuw i8, ptr %4, i64 136
  store i32 0, ptr %23, align 8, !tbaa !157
  %24 = getelementptr inbounds nuw i8, ptr %4, i64 8
  %25 = call i32 @sigemptyset(ptr noundef nonnull %24) #18
  %26 = call i32 @sigaction(i32 noundef 1, ptr noundef nonnull %4, ptr noundef null) #18
  call void @llvm.lifetime.end.p0(i64 152, ptr nonnull %4) #18
  call void @llvm.lifetime.start.p0(i64 152, ptr nonnull %3) #18
  store ptr null, ptr %3, align 8, !tbaa !140
  %27 = getelementptr inbounds nuw i8, ptr %3, i64 136
  store i32 0, ptr %27, align 8, !tbaa !157
  %28 = getelementptr inbounds nuw i8, ptr %3, i64 8
  %29 = call i32 @sigemptyset(ptr noundef nonnull %28) #18
  %30 = call i32 @sigaction(i32 noundef 13, ptr noundef nonnull %3, ptr noundef null) #18
  call void @llvm.lifetime.end.p0(i64 152, ptr nonnull %3) #18
  call void @llvm.lifetime.start.p0(i64 152, ptr nonnull %2) #18
  store ptr null, ptr %2, align 8, !tbaa !140
  %31 = getelementptr inbounds nuw i8, ptr %2, i64 136
  store i32 0, ptr %31, align 8, !tbaa !157
  %32 = getelementptr inbounds nuw i8, ptr %2, i64 8
  %33 = call i32 @sigemptyset(ptr noundef nonnull %32) #18
  %34 = call i32 @sigaction(i32 noundef 17, ptr noundef nonnull %2, ptr noundef null) #18
  call void @llvm.lifetime.end.p0(i64 152, ptr nonnull %2) #18
  %35 = call i32 @sigprocmask(i32 noundef 0, ptr noundef null, ptr noundef nonnull %7) #18
  %36 = call i32 @sigprocmask(i32 noundef 1, ptr noundef nonnull %7, ptr noundef null) #18
  %37 = call ptr @PMIx_Argv_join(ptr noundef %0, i32 noundef 32) #18
  %38 = load i32, ptr getelementptr inbounds nuw (i8, ptr @prte_plm_base_framework, i64 76), align 4, !tbaa !18
  %or.cond = icmp ult i32 %38, 64
  br i1 %or.cond, label %39, label %48

39:                                               ; preds = %1
  %40 = zext nneg i32 %38 to i64
  %41 = getelementptr inbounds nuw [0 x %struct.pmix_output_desc_t], ptr @pmix_output_info, i64 0, i64 %40, i32 2
  %42 = load i32, ptr %41, align 4, !tbaa !28
  %43 = icmp sgt i32 %42, 0
  br i1 %43, label %44, label %48

44:                                               ; preds = %39
  %45 = call ptr @prte_util_print_name_args(ptr noundef nonnull @prte_process_info) #18
  %46 = icmp eq ptr %37, null
  %47 = select i1 %46, ptr @.str.15, ptr %37
  call void (i32, ptr, ...) @pmix_output(i32 noundef %38, ptr noundef nonnull @.str.101, ptr noundef %45, ptr noundef %11, ptr noundef nonnull %47) #18
  br label %48

48:                                               ; preds = %44, %39, %1
  %.not = icmp eq ptr %37, null
  br i1 %.not, label %50, label %49

49:                                               ; preds = %48
  call void @free(ptr noundef nonnull %37) #18
  br label %50

50:                                               ; preds = %49, %48
  %51 = call i32 @execve(ptr noundef %11, ptr noundef %0, ptr noundef %9) #18
  %52 = tail call ptr @__errno_location() #21
  %53 = load i32, ptr %52, align 4, !tbaa !34
  %54 = call ptr @strerror(i32 noundef %53) #18
  %55 = load i32, ptr %52, align 4, !tbaa !34
  call void (i32, ptr, ...) @pmix_output(i32 noundef 0, ptr noundef nonnull @.str.102, ptr noundef %11, ptr noundef %54, i32 noundef %55) #18
  call void @exit(i32 noundef -1) #19
  unreachable
}